; Function Attrs: mustprogress nounwind uwtable
define dso_local void @_ZN4llvm3sys4path15remove_filenameERNS_15SmallVectorImplIcEENS1_5StyleE(ptr noundef nonnull align 8 dereferenceable(24) %0, i32 noundef %1) local_unnamed_addr #0 {
  %3 = load ptr, ptr %0, align 8
  %4 = tail call noundef i64 @_ZNK4llvm15SmallVectorBaseImE4sizeEv(ptr noundef nonnull align 8 dereferenceable(24) %0) #30
  %5 = tail call fastcc noundef i64 @_ZN12_GLOBAL__N_115parent_path_endEN4llvm9StringRefENS0_3sys4path5StyleE(ptr %3, i64 %4, i32 noundef %1)
  %.not = icmp eq i64 %5, -1
  br i1 %.not, label %8, label %6

6:                                                ; preds = %2
  %7 = tail call noundef i64 @_ZNK4llvm15SmallVectorBaseImE4sizeEv(ptr noundef nonnull align 8 dereferenceable(24) %0) #30
  tail call void @_ZN4llvm15SmallVectorBaseImE8set_sizeEm(ptr noundef nonnull align 8 dereferenceable(24) %0, i64 noundef %5) #30
  br label %8

8:                                                ; preds = %6, %2
  ret void
}